ccopy_reg
_reconstructor
p1
(c__main__
SLPComponent
p2
c__builtin__
object
p3
NtRp4
(dp5
S'last_output_time'
p6
F0
sS'inputs'
p7
(dp8
sS'out_ports'
p9
(dp10
sS'interval'
p11
F1
sS'results'
p12
(dp13
sS'in_ports'
p14
(dp15
sS'last_input_time'
p16
F0
sS'states'
p17
(dp18
sS'offset'
p19
F0
sb.